(dp0
(V\u258a
p1
V\u258a
p2
tp3
F0.004394365282486905
s(V\u2605
p4
V\u2605
p5
tp6
F0.002857521171861629
s(V\u274e
p7
V\u274e
p8
tp9
F0.0038553906686175456
s(V\u2764
p10
V\ufe0f
p11
tp12
F0.006513758516649253
s(V\u2583
p13
V\u2583
p14
tp15
F0.01603910529200359
s(V\U0001f308
p16
V\U0001f308
p17
tp18
F0.0026686229874211087
s(V\u2014
p19
V\u2014
p20
tp21
F0.008420733652555497
s(V\u2550
p22
V\u2550
p23
tp24
F0.004273121319277306
s(V\u25ac
p25
V\u25ac
p26
tp27
F0.008031576374429004
s.