(dp0
(V\u2014
p1
V\u2014
p2
tp3
F0.009919162507737217
s(V\ufe0f
p4
V\u2764
p5
tp6
F0.0022868042362025978
s(V~~
p7
V~~
p8
tp9
F0.003123990578077087
s(Vdeep
p10
Vtissue
p11
tp12
F0.0029337824898557742
s(V\u2605
p13
V\u2605
p14
tp15
F0.002981337903810828
s(V\u2764
p16
g4
tp17
F0.004577886657320241
s(Vfull
p18
Vbody
p19
tp20
F0.0024676197145001863
s(V\U0001f308
p21
V\U0001f308
p22
tp23
F0.0031525186711185925
s(V\u2550
p24
V\u2550
p25
tp26
F0.00574517426999206
s.